; Function Attrs: mustprogress uwtable
define dso_local void @_ZN7testing8internal17TestEventRepeater18OnTestIterationEndERKNS_8UnitTestEi(ptr noundef nonnull readonly align 8 captures(none) dereferenceable(40) %0, ptr noundef nonnull align 8 dereferenceable(72) %1, i32 noundef %2) unnamed_addr #3 align 2 {
  %4 = getelementptr inbounds nuw i8, ptr %0, i64 8
  %5 = load i8, ptr %4, align 8, !tbaa !243, !range !17, !noundef !18
  %6 = trunc nuw i8 %5 to i1
  br i1 %6, label %7, label %.loopexit

7:                                                ; preds = %3
  %8 = getelementptr inbounds nuw i8, ptr %0, i64 16
  %9 = getelementptr inbounds nuw i8, ptr %0, i64 24
  %10 = load ptr, ptr %9, align 8, !tbaa !1077
  %11 = load ptr, ptr %8, align 8, !tbaa !1075
  %.not5 = icmp eq ptr %10, %11
  br i1 %.not5, label %.loopexit, label %.lr.ph.preheader

.lr.ph.preheader:                                 ; preds = %7
  %12 = ptrtoint ptr %10 to i64
  %13 = ptrtoint ptr %11 to i64
  %14 = sub i64 %12, %13
  %15 = ashr exact i64 %14, 3
  br label %.lr.ph

.lr.ph:                                           ; preds = %.lr.ph.preheader, %.lr.ph
  %.06 = phi i64 [ %16, %.lr.ph ], [ %15, %.lr.ph.preheader ]
  %16 = add i64 %.06, -1
  %17 = load ptr, ptr %8, align 8, !tbaa !1075
  %18 = getelementptr inbounds nuw ptr, ptr %17, i64 %16
  %19 = load ptr, ptr %18, align 8, !tbaa !1073
  %20 = load ptr, ptr %19, align 8, !tbaa !33
  %21 = getelementptr inbounds nuw i8, ptr %20, i64 128
  %22 = load ptr, ptr %21, align 8
  tail call void %22(ptr noundef nonnull align 8 dereferenceable(8) %19, ptr noundef nonnull align 8 dereferenceable(72) %1, i32 noundef %2)
  %.not = icmp eq i64 %16, 0
  br i1 %.not, label %.loopexit, label %.lr.ph, !llvm.loop !1094

.loopexit:                                        ; preds = %.lr.ph, %7, %3
  ret void
}